(dp0
S'/home/gingerbeard/Dropbox/University/MSc Dissertation Evaluation/systemConfig/25'
p1
S'e2c5356d4d2918b8739d8bd761f518d4'
p2
sS'/home/gingerbeard/Dropbox/University/MSc Dissertation Evaluation/systemConfig/24'
p3
S'e2c5356d4d2918b8739d8bd761f518d4'
p4
sS'/home/gingerbeard/Dropbox/University/MSc Dissertation Evaluation/systemConfig/27'
p5
S'e2c5356d4d2918b8739d8bd761f518d4'
p6
sS'/home/gingerbeard/Dropbox/University/MSc Dissertation Evaluation/systemConfig/26'
p7
S'e2c5356d4d2918b8739d8bd761f518d4'
p8
sS'/home/gingerbeard/Dropbox/University/MSc Dissertation Evaluation/systemConfig/21'
p9
S'e2c5356d4d2918b8739d8bd761f518d4'
p10
sS'/home/gingerbeard/Dropbox/University/MSc Dissertation Evaluation/systemConfig/20'
p11
S'e2c5356d4d2918b8739d8bd761f518d4'
p12
sS'/home/gingerbeard/Dropbox/University/MSc Dissertation Evaluation/systemConfig/23'
p13
S'e2c5356d4d2918b8739d8bd761f518d4'
p14
sS'/home/gingerbeard/Dropbox/University/MSc Dissertation Evaluation/systemConfig/22'
p15
S'e2c5356d4d2918b8739d8bd761f518d4'
p16
sS'/home/gingerbeard/Dropbox/University/MSc Dissertation Evaluation/systemConfig/29'
p17
S'e2c5356d4d2918b8739d8bd761f518d4'
p18
sS'/home/gingerbeard/Dropbox/University/MSc Dissertation Evaluation/systemConfig/28'
p19
S'e2c5356d4d2918b8739d8bd761f518d4'
p20
sS'/home/gingerbeard/Dropbox/University/MSc Dissertation Evaluation/systemConfig/32'
p21
S'e2c5356d4d2918b8739d8bd761f518d4'
p22
sS'/home/gingerbeard/Dropbox/University/MSc Dissertation Evaluation/systemConfig/33'
p23
S'e2c5356d4d2918b8739d8bd761f518d4'
p24
sS'/home/gingerbeard/Dropbox/University/MSc Dissertation Evaluation/systemConfig/30'
p25
S'e2c5356d4d2918b8739d8bd761f518d4'
p26
sS'/home/gingerbeard/Dropbox/University/MSc Dissertation Evaluation/systemConfig/31'
p27
S'e2c5356d4d2918b8739d8bd761f518d4'
p28
sS'/home/gingerbeard/Dropbox/University/MSc Dissertation Evaluation/systemConfig/36'
p29
S'e2c5356d4d2918b8739d8bd761f518d4'
p30
sS'/home/gingerbeard/Dropbox/University/MSc Dissertation Evaluation/systemConfig/37'
p31
S'e2c5356d4d2918b8739d8bd761f518d4'
p32
sS'/home/gingerbeard/Dropbox/University/MSc Dissertation Evaluation/systemConfig/34'
p33
S'e2c5356d4d2918b8739d8bd761f518d4'
p34
sS'/home/gingerbeard/Dropbox/University/MSc Dissertation Evaluation/systemConfig/35'
p35
S'e2c5356d4d2918b8739d8bd761f518d4'
p36
sS'/home/gingerbeard/Dropbox/University/MSc Dissertation Evaluation/systemConfig/38'
p37
S'e2c5356d4d2918b8739d8bd761f518d4'
p38
sS'/home/gingerbeard/Dropbox/University/MSc Dissertation Evaluation/systemConfig/39'
p39
S'e2c5356d4d2918b8739d8bd761f518d4'
p40
sS'/home/gingerbeard/Dropbox/University/MSc Dissertation Evaluation/systemConfig/100'
p41
S'e2c5356d4d2918b8739d8bd761f518d4'
p42
sS'/home/gingerbeard/Dropbox/University/MSc Dissertation Evaluation/systemConfig/8'
p43
S'e2c5356d4d2918b8739d8bd761f518d4'
p44
sS'/home/gingerbeard/Dropbox/University/MSc Dissertation Evaluation/systemConfig/9'
p45
S'e2c5356d4d2918b8739d8bd761f518d4'
p46
sS'/home/gingerbeard/Dropbox/University/MSc Dissertation Evaluation/systemConfig/2'
p47
S'e2c5356d4d2918b8739d8bd761f518d4'
p48
sS'/home/gingerbeard/Dropbox/University/MSc Dissertation Evaluation/systemConfig/3'
p49
S'e2c5356d4d2918b8739d8bd761f518d4'
p50
sS'/home/gingerbeard/Dropbox/University/MSc Dissertation Evaluation/systemConfig/1'
p51
S'e2c5356d4d2918b8739d8bd761f518d4'
p52
sS'/home/gingerbeard/Dropbox/University/MSc Dissertation Evaluation/systemConfig/6'
p53
S'e2c5356d4d2918b8739d8bd761f518d4'
p54
sS'/home/gingerbeard/Dropbox/University/MSc Dissertation Evaluation/systemConfig/7'
p55
S'e2c5356d4d2918b8739d8bd761f518d4'
p56
sS'/home/gingerbeard/Dropbox/University/MSc Dissertation Evaluation/systemConfig/4'
p57
S'e2c5356d4d2918b8739d8bd761f518d4'
p58
sS'/home/gingerbeard/Dropbox/University/MSc Dissertation Evaluation/systemConfig/5'
p59
S'e2c5356d4d2918b8739d8bd761f518d4'
p60
sS'/home/gingerbeard/Dropbox/University/MSc Dissertation Evaluation/systemConfig/43'
p61
S'e2c5356d4d2918b8739d8bd761f518d4'
p62
sS'/home/gingerbeard/Dropbox/University/MSc Dissertation Evaluation/systemConfig/42'
p63
S'e2c5356d4d2918b8739d8bd761f518d4'
p64
sS'/home/gingerbeard/Dropbox/University/MSc Dissertation Evaluation/systemConfig/41'
p65
S'e2c5356d4d2918b8739d8bd761f518d4'
p66
sS'/home/gingerbeard/Dropbox/University/MSc Dissertation Evaluation/systemConfig/40'
p67
S'e2c5356d4d2918b8739d8bd761f518d4'
p68
sS'/home/gingerbeard/Dropbox/University/MSc Dissertation Evaluation/systemConfig/47'
p69
S'e2c5356d4d2918b8739d8bd761f518d4'
p70
sS'/home/gingerbeard/Dropbox/University/MSc Dissertation Evaluation/systemConfig/46'
p71
S'e2c5356d4d2918b8739d8bd761f518d4'
p72
sS'/home/gingerbeard/Dropbox/University/MSc Dissertation Evaluation/systemConfig/45'
p73
S'e2c5356d4d2918b8739d8bd761f518d4'
p74
sS'/home/gingerbeard/Dropbox/University/MSc Dissertation Evaluation/systemConfig/44'
p75
S'e2c5356d4d2918b8739d8bd761f518d4'
p76
sS'/home/gingerbeard/Dropbox/University/MSc Dissertation Evaluation/systemConfig/49'
p77
S'e2c5356d4d2918b8739d8bd761f518d4'
p78
sS'/home/gingerbeard/Dropbox/University/MSc Dissertation Evaluation/systemConfig/48'
p79
S'e2c5356d4d2918b8739d8bd761f518d4'
p80
sS'/home/gingerbeard/Dropbox/University/MSc Dissertation Evaluation/systemConfig/50'
p81
S'e2c5356d4d2918b8739d8bd761f518d4'
p82
sS'/home/gingerbeard/Dropbox/University/MSc Dissertation Evaluation/systemConfig/51'
p83
S'e2c5356d4d2918b8739d8bd761f518d4'
p84
sS'/home/gingerbeard/Dropbox/University/MSc Dissertation Evaluation/systemConfig/52'
p85
S'e2c5356d4d2918b8739d8bd761f518d4'
p86
sS'/home/gingerbeard/Dropbox/University/MSc Dissertation Evaluation/systemConfig/53'
p87
S'e2c5356d4d2918b8739d8bd761f518d4'
p88
sS'/home/gingerbeard/Dropbox/University/MSc Dissertation Evaluation/systemConfig/54'
p89
S'e2c5356d4d2918b8739d8bd761f518d4'
p90
sS'/home/gingerbeard/Dropbox/University/MSc Dissertation Evaluation/systemConfig/55'
p91
S'e2c5356d4d2918b8739d8bd761f518d4'
p92
sS'/home/gingerbeard/Dropbox/University/MSc Dissertation Evaluation/systemConfig/56'
p93
S'e2c5356d4d2918b8739d8bd761f518d4'
p94
sS'/home/gingerbeard/Dropbox/University/MSc Dissertation Evaluation/systemConfig/57'
p95
S'e2c5356d4d2918b8739d8bd761f518d4'
p96
sS'/home/gingerbeard/Dropbox/University/MSc Dissertation Evaluation/systemConfig/58'
p97
S'e2c5356d4d2918b8739d8bd761f518d4'
p98
sS'/home/gingerbeard/Dropbox/University/MSc Dissertation Evaluation/systemConfig/59'
p99
S'e2c5356d4d2918b8739d8bd761f518d4'
p100
sS'/home/gingerbeard/Dropbox/University/MSc Dissertation Evaluation/systemConfig/69'
p101
S'e2c5356d4d2918b8739d8bd761f518d4'
p102
sS'/home/gingerbeard/Dropbox/University/MSc Dissertation Evaluation/systemConfig/68'
p103
S'e2c5356d4d2918b8739d8bd761f518d4'
p104
sS'/home/gingerbeard/Dropbox/University/MSc Dissertation Evaluation/systemConfig/61'
p105
S'e2c5356d4d2918b8739d8bd761f518d4'
p106
sS'/home/gingerbeard/Dropbox/University/MSc Dissertation Evaluation/systemConfig/60'
p107
S'e2c5356d4d2918b8739d8bd761f518d4'
p108
sS'/home/gingerbeard/Dropbox/University/MSc Dissertation Evaluation/systemConfig/63'
p109
S'e2c5356d4d2918b8739d8bd761f518d4'
p110
sS'/home/gingerbeard/Dropbox/University/MSc Dissertation Evaluation/systemConfig/62'
p111
S'e2c5356d4d2918b8739d8bd761f518d4'
p112
sS'/home/gingerbeard/Dropbox/University/MSc Dissertation Evaluation/systemConfig/65'
p113
S'e2c5356d4d2918b8739d8bd761f518d4'
p114
sS'/home/gingerbeard/Dropbox/University/MSc Dissertation Evaluation/systemConfig/64'
p115
S'e2c5356d4d2918b8739d8bd761f518d4'
p116
sS'/home/gingerbeard/Dropbox/University/MSc Dissertation Evaluation/systemConfig/67'
p117
S'e2c5356d4d2918b8739d8bd761f518d4'
p118
sS'/home/gingerbeard/Dropbox/University/MSc Dissertation Evaluation/systemConfig/66'
p119
S'e2c5356d4d2918b8739d8bd761f518d4'
p120
sS'/home/gingerbeard/Dropbox/University/MSc Dissertation Evaluation/systemConfig/76'
p121
S'e2c5356d4d2918b8739d8bd761f518d4'
p122
sS'/home/gingerbeard/Dropbox/University/MSc Dissertation Evaluation/systemConfig/77'
p123
S'e2c5356d4d2918b8739d8bd761f518d4'
p124
sS'/home/gingerbeard/Dropbox/University/MSc Dissertation Evaluation/systemConfig/74'
p125
S'e2c5356d4d2918b8739d8bd761f518d4'
p126
sS'/home/gingerbeard/Dropbox/University/MSc Dissertation Evaluation/systemConfig/75'
p127
S'e2c5356d4d2918b8739d8bd761f518d4'
p128
sS'/home/gingerbeard/Dropbox/University/MSc Dissertation Evaluation/systemConfig/72'
p129
S'e2c5356d4d2918b8739d8bd761f518d4'
p130
sS'/home/gingerbeard/Dropbox/University/MSc Dissertation Evaluation/systemConfig/73'
p131
S'e2c5356d4d2918b8739d8bd761f518d4'
p132
sS'/home/gingerbeard/Dropbox/University/MSc Dissertation Evaluation/systemConfig/70'
p133
S'e2c5356d4d2918b8739d8bd761f518d4'
p134
sS'/home/gingerbeard/Dropbox/University/MSc Dissertation Evaluation/systemConfig/71'
p135
S'e2c5356d4d2918b8739d8bd761f518d4'
p136
sS'/home/gingerbeard/Dropbox/University/MSc Dissertation Evaluation/systemConfig/78'
p137
S'e2c5356d4d2918b8739d8bd761f518d4'
p138
sS'/home/gingerbeard/Dropbox/University/MSc Dissertation Evaluation/systemConfig/79'
p139
S'e2c5356d4d2918b8739d8bd761f518d4'
p140
sS'/home/gingerbeard/Dropbox/University/MSc Dissertation Evaluation/systemConfig/87'
p141
S'e2c5356d4d2918b8739d8bd761f518d4'
p142
sS'/home/gingerbeard/Dropbox/University/MSc Dissertation Evaluation/systemConfig/86'
p143
S'e2c5356d4d2918b8739d8bd761f518d4'
p144
sS'/home/gingerbeard/Dropbox/University/MSc Dissertation Evaluation/systemConfig/85'
p145
S'e2c5356d4d2918b8739d8bd761f518d4'
p146
sS'/home/gingerbeard/Dropbox/University/MSc Dissertation Evaluation/systemConfig/84'
p147
S'e2c5356d4d2918b8739d8bd761f518d4'
p148
sS'/home/gingerbeard/Dropbox/University/MSc Dissertation Evaluation/systemConfig/83'
p149
S'e2c5356d4d2918b8739d8bd761f518d4'
p150
sS'/home/gingerbeard/Dropbox/University/MSc Dissertation Evaluation/systemConfig/82'
p151
S'e2c5356d4d2918b8739d8bd761f518d4'
p152
sS'/home/gingerbeard/Dropbox/University/MSc Dissertation Evaluation/systemConfig/81'
p153
S'e2c5356d4d2918b8739d8bd761f518d4'
p154
sS'/home/gingerbeard/Dropbox/University/MSc Dissertation Evaluation/systemConfig/80'
p155
S'e2c5356d4d2918b8739d8bd761f518d4'
p156
sS'/home/gingerbeard/Dropbox/University/MSc Dissertation Evaluation/systemConfig/89'
p157
S'e2c5356d4d2918b8739d8bd761f518d4'
p158
sS'/home/gingerbeard/Dropbox/University/MSc Dissertation Evaluation/systemConfig/88'
p159
S'e2c5356d4d2918b8739d8bd761f518d4'
p160
sS'/home/gingerbeard/Dropbox/University/MSc Dissertation Evaluation/systemConfig/94'
p161
S'e2c5356d4d2918b8739d8bd761f518d4'
p162
sS'/home/gingerbeard/Dropbox/University/MSc Dissertation Evaluation/systemConfig/95'
p163
S'e2c5356d4d2918b8739d8bd761f518d4'
p164
sS'/home/gingerbeard/Dropbox/University/MSc Dissertation Evaluation/systemConfig/96'
p165
S'e2c5356d4d2918b8739d8bd761f518d4'
p166
sS'/home/gingerbeard/Dropbox/University/MSc Dissertation Evaluation/systemConfig/97'
p167
S'e2c5356d4d2918b8739d8bd761f518d4'
p168
sS'/home/gingerbeard/Dropbox/University/MSc Dissertation Evaluation/systemConfig/90'
p169
S'e2c5356d4d2918b8739d8bd761f518d4'
p170
sS'/home/gingerbeard/Dropbox/University/MSc Dissertation Evaluation/systemConfig/91'
p171
S'e2c5356d4d2918b8739d8bd761f518d4'
p172
sS'/home/gingerbeard/Dropbox/University/MSc Dissertation Evaluation/systemConfig/92'
p173
S'e2c5356d4d2918b8739d8bd761f518d4'
p174
sS'/home/gingerbeard/Dropbox/University/MSc Dissertation Evaluation/systemConfig/93'
p175
S'e2c5356d4d2918b8739d8bd761f518d4'
p176
sS'/home/gingerbeard/Dropbox/University/MSc Dissertation Evaluation/systemConfig/98'
p177
S'e2c5356d4d2918b8739d8bd761f518d4'
p178
sS'/home/gingerbeard/Dropbox/University/MSc Dissertation Evaluation/systemConfig/99'
p179
S'e2c5356d4d2918b8739d8bd761f518d4'
p180
sS'/home/gingerbeard/Dropbox/University/MSc Dissertation Evaluation/systemConfig/18'
p181
S'e2c5356d4d2918b8739d8bd761f518d4'
p182
sS'/home/gingerbeard/Dropbox/University/MSc Dissertation Evaluation/systemConfig/19'
p183
S'e2c5356d4d2918b8739d8bd761f518d4'
p184
sS'/home/gingerbeard/Dropbox/University/MSc Dissertation Evaluation/systemConfig/14'
p185
S'e2c5356d4d2918b8739d8bd761f518d4'
p186
sS'/home/gingerbeard/Dropbox/University/MSc Dissertation Evaluation/systemConfig/15'
p187
S'e2c5356d4d2918b8739d8bd761f518d4'
p188
sS'/home/gingerbeard/Dropbox/University/MSc Dissertation Evaluation/systemConfig/16'
p189
S'e2c5356d4d2918b8739d8bd761f518d4'
p190
sS'/home/gingerbeard/Dropbox/University/MSc Dissertation Evaluation/systemConfig/17'
p191
S'e2c5356d4d2918b8739d8bd761f518d4'
p192
sS'/home/gingerbeard/Dropbox/University/MSc Dissertation Evaluation/systemConfig/10'
p193
S'e2c5356d4d2918b8739d8bd761f518d4'
p194
sS'/home/gingerbeard/Dropbox/University/MSc Dissertation Evaluation/systemConfig/11'
p195
S'e2c5356d4d2918b8739d8bd761f518d4'
p196
sS'/home/gingerbeard/Dropbox/University/MSc Dissertation Evaluation/systemConfig/12'
p197
S'e2c5356d4d2918b8739d8bd761f518d4'
p198
sS'/home/gingerbeard/Dropbox/University/MSc Dissertation Evaluation/systemConfig/13'
p199
S'e2c5356d4d2918b8739d8bd761f518d4'
p200
s.